; Function Attrs: mustprogress nounwind uwtable
define dso_local noundef i32 @_ZNK4llvm18FunctionComparator9cmpMDNodeEPKNS_6MDNodeES3_(ptr noundef nonnull align 8 dereferenceable(72) %0, ptr noundef %1, ptr noundef %2) local_unnamed_addr #2 align 2 {
  %4 = icmp eq ptr %1, %2
  br i1 %4, label %.loopexit, label %5

5:                                                ; preds = %3
  %.not = icmp eq ptr %1, null
  br i1 %.not, label %.loopexit, label %6

6:                                                ; preds = %5
  %.not23 = icmp eq ptr %2, null
  br i1 %.not23, label %.loopexit, label %7

7:                                                ; preds = %6
  %8 = getelementptr inbounds i8, ptr %1, i64 -16
  %9 = load i64, ptr %8, align 8
  %10 = and i64 %9, 2
  %.not.i.i = icmp eq i64 %10, 0
  br i1 %.not.i.i, label %11, label %14

11:                                               ; preds = %7
  %12 = lshr i64 %9, 6
  %13 = and i64 %12, 15
  br label %_ZNK4llvm6MDNode14getNumOperandsEv.exit

14:                                               ; preds = %7
  %15 = getelementptr inbounds i8, ptr %1, i64 -32
  %16 = tail call noundef i64 @_ZNK4llvm15SmallVectorBaseIjE4sizeEv(ptr noundef nonnull align 8 dereferenceable(16) %15) #18
  %17 = and i64 %16, 4294967295
  br label %_ZNK4llvm6MDNode14getNumOperandsEv.exit

_ZNK4llvm6MDNode14getNumOperandsEv.exit:          ; preds = %11, %14
  %.0.i.i = phi i64 [ %17, %14 ], [ %13, %11 ]
  %18 = getelementptr inbounds i8, ptr %2, i64 -16
  %19 = load i64, ptr %18, align 8
  %20 = and i64 %19, 2
  %.not.i.i26 = icmp eq i64 %20, 0
  br i1 %.not.i.i26, label %21, label %24

21:                                               ; preds = %_ZNK4llvm6MDNode14getNumOperandsEv.exit
  %22 = lshr i64 %19, 6
  %23 = and i64 %22, 15
  br label %_ZNK4llvm6MDNode14getNumOperandsEv.exit28

24:                                               ; preds = %_ZNK4llvm6MDNode14getNumOperandsEv.exit
  %25 = getelementptr inbounds i8, ptr %2, i64 -32
  %26 = tail call noundef i64 @_ZNK4llvm15SmallVectorBaseIjE4sizeEv(ptr noundef nonnull align 8 dereferenceable(16) %25) #18
  %27 = and i64 %26, 4294967295
  br label %_ZNK4llvm6MDNode14getNumOperandsEv.exit28

_ZNK4llvm6MDNode14getNumOperandsEv.exit28:        ; preds = %21, %24
  %.0.i.i27 = phi i64 [ %27, %24 ], [ %23, %21 ]
  %.0.i = tail call noundef range(i32 -1, 2) i32 @llvm.ucmp.i32.i64(i64 %.0.i.i, i64 %.0.i.i27)
  %.not24 = icmp eq i64 %.0.i.i, %.0.i.i27
  br i1 %.not24, label %.preheader, label %.loopexit

.preheader:                                       ; preds = %_ZNK4llvm6MDNode14getNumOperandsEv.exit28
  %28 = getelementptr inbounds i8, ptr %1, i64 -32
  %29 = getelementptr inbounds i8, ptr %2, i64 -32
  br label %30

30:                                               ; preds = %_ZNK4llvm6MDNode10getOperandEj.exit35, %.preheader
  %.018 = phi i64 [ %66, %_ZNK4llvm6MDNode10getOperandEj.exit35 ], [ 0, %.preheader ]
  %31 = load i64, ptr %8, align 8
  %32 = and i64 %31, 2
  %.not.i.i29 = icmp eq i64 %32, 0
  br i1 %.not.i.i29, label %33, label %36

33:                                               ; preds = %30
  %34 = lshr i64 %31, 6
  %35 = and i64 %34, 15
  br label %_ZNK4llvm6MDNode14getNumOperandsEv.exit31

36:                                               ; preds = %30
  %37 = tail call noundef i64 @_ZNK4llvm15SmallVectorBaseIjE4sizeEv(ptr noundef nonnull align 8 dereferenceable(16) %28) #18
  %38 = and i64 %37, 4294967295
  br label %_ZNK4llvm6MDNode14getNumOperandsEv.exit31

_ZNK4llvm6MDNode14getNumOperandsEv.exit31:        ; preds = %33, %36
  %.0.i.i30 = phi i64 [ %38, %36 ], [ %35, %33 ]
  %39 = icmp samesign ult i64 %.018, %.0.i.i30
  br i1 %39, label %40, label %.loopexit

40:                                               ; preds = %_ZNK4llvm6MDNode14getNumOperandsEv.exit31
  %41 = load i64, ptr %8, align 8
  %42 = and i64 %41, 2
  %.not.i.i32 = icmp eq i64 %42, 0
  br i1 %.not.i.i32, label %46, label %43

43:                                               ; preds = %40
  %44 = load ptr, ptr %28, align 8
  %45 = tail call noundef i64 @_ZNK4llvm15SmallVectorBaseIjE4sizeEv(ptr noundef nonnull align 8 dereferenceable(16) %28) #18
  br label %_ZNK4llvm6MDNode10getOperandEj.exit

46:                                               ; preds = %40
  %47 = lshr i64 %41, 2
  %48 = and i64 %47, 15
  %49 = sub nsw i64 0, %48
  %50 = getelementptr inbounds %"class.llvm::MDOperand", ptr %8, i64 %49
  br label %_ZNK4llvm6MDNode10getOperandEj.exit

_ZNK4llvm6MDNode10getOperandEj.exit:              ; preds = %43, %46
  %.sroa.0.0.i.i = phi ptr [ %50, %46 ], [ %44, %43 ]
  %51 = getelementptr inbounds nuw %"class.llvm::MDOperand", ptr %.sroa.0.0.i.i, i64 %.018
  %52 = load ptr, ptr %51, align 8
  %53 = load i64, ptr %18, align 8
  %54 = and i64 %53, 2
  %.not.i.i33 = icmp eq i64 %54, 0
  br i1 %.not.i.i33, label %58, label %55

55:                                               ; preds = %_ZNK4llvm6MDNode10getOperandEj.exit
  %56 = load ptr, ptr %29, align 8
  %57 = tail call noundef i64 @_ZNK4llvm15SmallVectorBaseIjE4sizeEv(ptr noundef nonnull align 8 dereferenceable(16) %29) #18
  br label %_ZNK4llvm6MDNode10getOperandEj.exit35

58:                                               ; preds = %_ZNK4llvm6MDNode10getOperandEj.exit
  %59 = lshr i64 %53, 2
  %60 = and i64 %59, 15
  %61 = sub nsw i64 0, %60
  %62 = getelementptr inbounds %"class.llvm::MDOperand", ptr %18, i64 %61
  br label %_ZNK4llvm6MDNode10getOperandEj.exit35

_ZNK4llvm6MDNode10getOperandEj.exit35:            ; preds = %55, %58
  %.sroa.0.0.i.i34 = phi ptr [ %62, %58 ], [ %56, %55 ]
  %63 = getelementptr inbounds nuw %"class.llvm::MDOperand", ptr %.sroa.0.0.i.i34, i64 %.018
  %64 = load ptr, ptr %63, align 8
  %65 = tail call noundef i32 @_ZNK4llvm18FunctionComparator11cmpMetadataEPKNS_8MetadataES3_(ptr noundef nonnull align 8 dereferenceable(72) %0, ptr noundef %52, ptr noundef %64)
  %.not25 = icmp eq i32 %65, 0
  %66 = add nuw nsw i64 %.018, 1
  br i1 %.not25, label %30, label %.loopexit, !llvm.loop !12

.loopexit:                                        ; preds = %_ZNK4llvm6MDNode14getNumOperandsEv.exit31, %_ZNK4llvm6MDNode10getOperandEj.exit35, %_ZNK4llvm6MDNode14getNumOperandsEv.exit28, %6, %5, %3
  %.0 = phi i32 [ 0, %3 ], [ -1, %5 ], [ 1, %6 ], [ %.0.i, %_ZNK4llvm6MDNode14getNumOperandsEv.exit28 ], [ 0, %_ZNK4llvm6MDNode14getNumOperandsEv.exit31 ], [ %65, %_ZNK4llvm6MDNode10getOperandEj.exit35 ]
  ret i32 %.0
}